target datalayout = "e-m:e-p270:32:32-p271:32:32-p272:64:64-i64:64-i128:128-f80:128-n8:16:32:64-S128"
target triple = "x86_64-unknown-linux-gnu"

%"class.std::__shared_count" = type { ptr }
%"class.rocksdb::CompressedSecondaryCache" = type <{ %"class.rocksdb::SecondaryCache", %"class.std::shared_ptr", %"struct.rocksdb::CompressedSecondaryCacheOptions", %"class.rocksdb::port::Mutex", %"class.std::shared_ptr.6", i8, [7 x i8] }>
%"class.rocksdb::SecondaryCache" = type { %"class.rocksdb::Customizable" }
%"class.rocksdb::Customizable" = type { %"class.rocksdb::Configurable" }
%"class.rocksdb::Configurable" = type { ptr, %"class.std::vector" }
%"class.std::vector" = type { %"struct.std::_Vector_base" }
%"struct.std::_Vector_base" = type { %"struct.std::_Vector_base<rocksdb::Configurable::RegisteredOptions, std::allocator<rocksdb::Configurable::RegisteredOptions>>::_Vector_impl" }
%"struct.std::_Vector_base<rocksdb::Configurable::RegisteredOptions, std::allocator<rocksdb::Configurable::RegisteredOptions>>::_Vector_impl" = type { %"struct.std::_Vector_base<rocksdb::Configurable::RegisteredOptions, std::allocator<rocksdb::Configurable::RegisteredOptions>>::_Vector_impl_data" }
%"struct.std::_Vector_base<rocksdb::Configurable::RegisteredOptions, std::allocator<rocksdb::Configurable::RegisteredOptions>>::_Vector_impl_data" = type { ptr, ptr, ptr }
%"class.std::shared_ptr" = type { %"class.std::__shared_ptr" }
%"class.std::__shared_ptr" = type { ptr, %"class.std::__shared_count" }
%"struct.rocksdb::CompressedSecondaryCacheOptions" = type { %"struct.rocksdb::LRUCacheOptions.base", i8, i32, i8, %"class.rocksdb::SmallEnumSet" }
%"struct.rocksdb::LRUCacheOptions.base" = type <{ %"struct.rocksdb::ShardedCacheOptions.base", [4 x i8], double, double, i8 }>
%"struct.rocksdb::ShardedCacheOptions.base" = type <{ ptr, i64, i32, i8, [3 x i8], %"class.std::shared_ptr.0", i32, [4 x i8], %"class.std::shared_ptr.3", i32 }>
%"class.std::shared_ptr.0" = type { %"class.std::__shared_ptr.1" }
%"class.std::__shared_ptr.1" = type { ptr, %"class.std::__shared_count" }
%"class.std::shared_ptr.3" = type { %"class.std::__shared_ptr.4" }
%"class.std::__shared_ptr.4" = type { ptr, %"class.std::__shared_count" }
%"class.rocksdb::SmallEnumSet" = type { i64 }
%"class.rocksdb::port::Mutex" = type { %union.pthread_mutex_t }
%union.pthread_mutex_t = type { %struct.__pthread_mutex_s }
%struct.__pthread_mutex_s = type { i32, i32, i32, i32, i32, i16, i16, %struct.__pthread_internal_list }
%struct.__pthread_internal_list = type { ptr, ptr }
%"class.std::shared_ptr.6" = type { %"class.std::__shared_ptr.7" }
%"class.std::__shared_ptr.7" = type { ptr, %"class.std::__shared_count" }
%"class.rocksdb::Status" = type { i8, i8, i8, i8, i8, i8, %"class.std::unique_ptr.22" }
%"class.std::unique_ptr.22" = type { %"struct.std::__uniq_ptr_data.23" }
%"struct.std::__uniq_ptr_data.23" = type { %"class.std::__uniq_ptr_impl.24" }
%"class.std::__uniq_ptr_impl.24" = type { %"class.std::tuple.25" }
%"class.std::tuple.25" = type { %"struct.std::_Tuple_impl.26" }
%"struct.std::_Tuple_impl.26" = type { %"struct.std::_Head_base.29" }
%"struct.std::_Head_base.29" = type { ptr }

; Function Attrs: mustprogress nounwind uwtable
define linkonce_odr noundef ptr @_ZNKSt12__shared_ptrIN7rocksdb33ConcurrentCacheReservationManagerELN9__gnu_cxx12_Lock_policyE2EE3getEv(ptr noundef nonnull align 8 dereferenceable(16) %this) #1 comdat align 2 {
entry:
  %this.addr = alloca ptr, align 8
  store ptr %this, ptr %this.addr, align 8
  %this1 = load ptr, ptr %this.addr, align 8
  %_M_ptr = getelementptr inbounds %"class.std::__shared_ptr.7", ptr %this1, i32 0, i32 0
  %0 = load ptr, ptr %_M_ptr, align 8
  ret ptr %0
}

; Function Attrs: mustprogress nounwind uwtable
define linkonce_odr noundef ptr @_ZNKSt19__shared_ptr_accessIN7rocksdb33ConcurrentCacheReservationManagerELN9__gnu_cxx12_Lock_policyE2ELb0ELb0EE6_M_getEv(ptr noundef nonnull align 1 dereferenceable(1) %this) #1 comdat align 2 {
entry:
  %this.addr = alloca ptr, align 8
  store ptr %this, ptr %this.addr, align 8
  %this1 = load ptr, ptr %this.addr, align 8
  %call = call noundef ptr @_ZNKSt12__shared_ptrIN7rocksdb33ConcurrentCacheReservationManagerELN9__gnu_cxx12_Lock_policyE2EE3getEv(ptr noundef nonnull align 8 dereferenceable(16) %this1) #9
  ret ptr %call
}

; Function Attrs: mustprogress nounwind uwtable
define linkonce_odr noundef ptr @_ZNKSt19__shared_ptr_accessIN7rocksdb33ConcurrentCacheReservationManagerELN9__gnu_cxx12_Lock_policyE2ELb0ELb0EEptEv(ptr noundef nonnull align 1 dereferenceable(1) %this) #1 comdat align 2 {
entry:
  %this.addr = alloca ptr, align 8
  store ptr %this, ptr %this.addr, align 8
  %this1 = load ptr, ptr %this.addr, align 8
  %call = call noundef ptr @_ZNKSt19__shared_ptr_accessIN7rocksdb33ConcurrentCacheReservationManagerELN9__gnu_cxx12_Lock_policyE2ELb0ELb0EE6_M_getEv(ptr noundef nonnull align 1 dereferenceable(1) %this1) #9
  ret ptr %call
}

; Function Attrs: mustprogress uwtable
define void @_ZN7rocksdb24CompressedSecondaryCache7InflateEm(ptr noalias sret(%"class.rocksdb::Status") align 8 %agg.result, ptr noundef nonnull align 8 dereferenceable(217) %this, i64 noundef %increase) unnamed_addr #0 align 2 {
entry:
  %result.ptr = alloca ptr, align 8
  %this.addr = alloca ptr, align 8
  %increase.addr = alloca i64, align 8
  store ptr %agg.result, ptr %result.ptr, align 8
  store ptr %this, ptr %this.addr, align 8
  store i64 %increase, ptr %increase.addr, align 8
  %this1 = load ptr, ptr %this.addr, align 8
  %cache_res_mgr_ = getelementptr inbounds %"class.rocksdb::CompressedSecondaryCache", ptr %this1, i32 0, i32 4
  %call = call noundef ptr @_ZNKSt19__shared_ptr_accessIN7rocksdb33ConcurrentCacheReservationManagerELN9__gnu_cxx12_Lock_policyE2ELb0ELb0EEptEv(ptr noundef nonnull align 1 dereferenceable(1) %cache_res_mgr_) #9
  %0 = load i64, ptr %increase.addr, align 8
  %vtable = load ptr, ptr %call, align 8
  %vfn = getelementptr inbounds ptr, ptr %vtable, i64 3
  %1 = load ptr, ptr %vfn, align 8
  call void %1(ptr sret(%"class.rocksdb::Status") align 8 %agg.result, ptr noundef nonnull align 8 dereferenceable(80) %call, i64 noundef %0, i1 noundef zeroext false)
  ret void
}